; Function Attrs: nounwind uwtable
define void @Gia_ManDupCones2CollectPis_rec(ptr noundef readonly captures(none) %0, i32 noundef %1, ptr noundef captures(none) %2) local_unnamed_addr #0 {
  %4 = getelementptr i8, ptr %0, i64 176
  %5 = getelementptr i8, ptr %0, i64 616
  %.val2030 = load i32, ptr %4, align 8, !tbaa !84
  %.val2131 = load ptr, ptr %5, align 8, !tbaa !85
  %6 = sext i32 %1 to i64
  %7 = getelementptr inbounds i32, ptr %.val2131, i64 %6
  %8 = load i32, ptr %7, align 4, !tbaa !35
  %.not.i32 = icmp eq i32 %8, %.val2030
  br i1 %.not.i32, label %Gia_ObjUpdateTravIdCurrentId.exit, label %.lr.ph

.lr.ph:                                           ; preds = %3
  %9 = getelementptr i8, ptr %0, i64 32
  br label %10

10:                                               ; preds = %.lr.ph, %tailrecurse
  %11 = phi ptr [ %7, %.lr.ph ], [ %25, %tailrecurse ]
  %12 = phi i64 [ %6, %.lr.ph ], [ %24, %tailrecurse ]
  %.val2034 = phi i32 [ %.val2030, %.lr.ph ], [ %.val20, %tailrecurse ]
  %.tr2733 = phi i32 [ %1, %.lr.ph ], [ %23, %tailrecurse ]
  store i32 %.val2034, ptr %11, align 4, !tbaa !35
  %.val = load ptr, ptr %9, align 8, !tbaa !3
  %13 = getelementptr inbounds %struct.Gia_Obj_t_, ptr %.val, i64 %12
  %.val19 = load i64, ptr %13, align 4
  %14 = and i64 %.val19, 2147483648
  %.not.i23 = icmp ne i64 %14, 0
  %15 = and i64 %.val19, 536870911
  %16 = icmp eq i64 %15, 536870911
  %narrow.i.not = or i1 %.not.i23, %16
  br i1 %narrow.i.not, label %27, label %tailrecurse

tailrecurse:                                      ; preds = %10
  %17 = trunc i64 %.val19 to i32
  %18 = and i32 %17, 536870911
  %19 = sub nsw i32 %.tr2733, %18
  tail call void @Gia_ManDupCones2CollectPis_rec(ptr noundef nonnull %0, i32 noundef %19, ptr noundef %2)
  %.val18 = load i64, ptr %13, align 4
  %20 = lshr i64 %.val18, 32
  %21 = trunc nuw i64 %20 to i32
  %22 = and i32 %21, 536870911
  %23 = sub nsw i32 %.tr2733, %22
  %.val20 = load i32, ptr %4, align 8, !tbaa !84
  %.val21 = load ptr, ptr %5, align 8, !tbaa !85
  %24 = sext i32 %23 to i64
  %25 = getelementptr inbounds i32, ptr %.val21, i64 %24
  %26 = load i32, ptr %25, align 4, !tbaa !35
  %.not.i = icmp eq i32 %26, %.val20
  br i1 %.not.i, label %Gia_ObjUpdateTravIdCurrentId.exit, label %10

27:                                               ; preds = %10
  %28 = and i64 %.val19, 2684354559
  %narrow.i24.not = icmp eq i64 %28, 2684354559
  br i1 %narrow.i24.not, label %29, label %Gia_ObjUpdateTravIdCurrentId.exit

29:                                               ; preds = %27
  %30 = getelementptr inbounds nuw i8, ptr %2, i64 4
  %31 = load i32, ptr %30, align 4, !tbaa !30
  %32 = load i32, ptr %2, align 8, !tbaa !33
  %33 = icmp eq i32 %31, %32
  br i1 %33, label %34, label %.Vec_IntGrow.exit10_crit_edge.i

.Vec_IntGrow.exit10_crit_edge.i:                  ; preds = %29
  %.phi.trans.insert.i = getelementptr inbounds nuw i8, ptr %2, i64 8
  %.pre.i = load ptr, ptr %.phi.trans.insert.i, align 8, !tbaa !32
  br label %Vec_IntPush.exit

34:                                               ; preds = %29
  %35 = icmp slt i32 %31, 16
  br i1 %35, label %36, label %44

36:                                               ; preds = %34
  %37 = getelementptr inbounds nuw i8, ptr %2, i64 8
  %38 = load ptr, ptr %37, align 8, !tbaa !32
  %.not9.i.i = icmp eq ptr %38, null
  br i1 %.not9.i.i, label %41, label %39

39:                                               ; preds = %36
  %40 = tail call dereferenceable_or_null(64) ptr @realloc(ptr noundef nonnull %38, i64 noundef 64) #28
  br label %Vec_IntGrow.exit.i

41:                                               ; preds = %36
  %42 = tail call noalias dereferenceable_or_null(64) ptr @malloc(i64 noundef 64) #26
  br label %Vec_IntGrow.exit.i

Vec_IntGrow.exit.i:                               ; preds = %41, %39
  %43 = phi ptr [ %40, %39 ], [ %42, %41 ]
  store ptr %43, ptr %37, align 8, !tbaa !32
  store i32 16, ptr %2, align 8, !tbaa !33
  br label %Vec_IntPush.exit

44:                                               ; preds = %34
  %45 = shl nuw nsw i32 %31, 1
  %46 = getelementptr inbounds nuw i8, ptr %2, i64 8
  %47 = load ptr, ptr %46, align 8, !tbaa !32
  %.not9.i9.i = icmp eq ptr %47, null
  %48 = zext nneg i32 %45 to i64
  %49 = shl nuw nsw i64 %48, 2
  br i1 %.not9.i9.i, label %52, label %50

50:                                               ; preds = %44
  %51 = tail call ptr @realloc(ptr noundef nonnull %47, i64 noundef %49) #28
  br label %54

52:                                               ; preds = %44
  %53 = tail call noalias ptr @malloc(i64 noundef %49) #26
  br label %54

54:                                               ; preds = %52, %50
  %55 = phi ptr [ %51, %50 ], [ %53, %52 ]
  store ptr %55, ptr %46, align 8, !tbaa !32
  store i32 %45, ptr %2, align 8, !tbaa !33
  br label %Vec_IntPush.exit

Vec_IntPush.exit:                                 ; preds = %.Vec_IntGrow.exit10_crit_edge.i, %Vec_IntGrow.exit.i, %54
  %56 = phi ptr [ %.pre.i, %.Vec_IntGrow.exit10_crit_edge.i ], [ %55, %54 ], [ %43, %Vec_IntGrow.exit.i ]
  %57 = load i32, ptr %30, align 4, !tbaa !30
  %58 = add nsw i32 %57, 1
  store i32 %58, ptr %30, align 4, !tbaa !30
  %59 = sext i32 %57 to i64
  %60 = getelementptr inbounds i32, ptr %56, i64 %59
  store i32 %.tr2733, ptr %60, align 4, !tbaa !35
  br label %Gia_ObjUpdateTravIdCurrentId.exit

Gia_ObjUpdateTravIdCurrentId.exit:                ; preds = %tailrecurse, %3, %27, %Vec_IntPush.exit
  ret void
}